; Function Attrs: mustprogress nofree norecurse nosync nounwind memory(readwrite, inaccessiblemem: none) uwtable
define hidden void @_ZN3sat10simplifier12mark_all_butERKNS_6clauseENS_7literalE(ptr nocapture noundef nonnull readonly align 8 dereferenceable(288) %this, ptr noundef nonnull readonly align 4 dereferenceable(20) %c, i32 %l1.coerce) local_unnamed_addr #5 align 2 {
entry:
  %m_size.i = getelementptr inbounds i8, ptr %c, i64 4
  %0 = load i32, ptr %m_size.i, align 4
  %idx.ext.i = zext i32 %0 to i64
  %add.ptr.i.idx = shl nuw nsw i64 %idx.ext.i, 2
  %1 = getelementptr i8, ptr %c, i64 %add.ptr.i.idx
  %add.ptr.i.ptr = getelementptr i8, ptr %1, i64 20
  %cmp.not6 = icmp eq i32 %0, 0
  br i1 %cmp.not6, label %for.end, label %for.body.lr.ph

for.body.lr.ph:                                   ; preds = %entry
  %m_lits.i.ptr = getelementptr inbounds i8, ptr %c, i64 20
  %m_visited.i = getelementptr inbounds i8, ptr %this, i64 96
  br label %for.body

for.body:                                         ; preds = %for.body.lr.ph, %for.inc
  %__begin1.07 = phi ptr [ %m_lits.i.ptr, %for.body.lr.ph ], [ %incdec.ptr, %for.inc ]
  %2 = load i32, ptr %__begin1.07, align 4
  %cmp.i.not = icmp eq i32 %2, %l1.coerce
  br i1 %cmp.i.not, label %for.inc, label %if.then

if.then:                                          ; preds = %for.body
  %3 = load ptr, ptr %m_visited.i, align 8
  %idxprom.i.i = zext i32 %2 to i64
  %arrayidx.i.i = getelementptr inbounds i8, ptr %3, i64 %idxprom.i.i
  store i8 1, ptr %arrayidx.i.i, align 1
  br label %for.inc

for.inc:                                          ; preds = %for.body, %if.then
  %incdec.ptr = getelementptr inbounds i8, ptr %__begin1.07, i64 4
  %cmp.not = icmp eq ptr %incdec.ptr, %add.ptr.i.ptr
  br i1 %cmp.not, label %for.end, label %for.body

for.end:                                          ; preds = %for.inc, %entry
  ret void
}